target datalayout = "e-m:e-p270:32:32-p271:32:32-p272:64:64-i64:64-i128:128-f80:128-n8:16:32:64-S128"
target triple = "x86_64-pc-linux-gnu"

%struct._bluetooth_data_t = type { i32, i32, ptr, ptr, ptr, ptr, ptr, ptr, ptr, ptr, ptr, ptr, ptr, i32, %union.anon }
%union.anon = type { ptr }

@hf_bthci_evt_bd_addr = internal global i32 0, align 4
@hf_bthci_evt_link_key = internal global i32 0, align 4
@hf_bthci_evt_num_keys = internal global i32 0, align 4

; Function Attrs: null_pointer_is_valid sspstrong uwtable
define internal i32 @dissect_bthci_evt_return_link_keys(ptr noundef %0, i32 noundef %1, ptr noundef %2, ptr noundef %3, ptr noundef %4) #1 {
  %6 = alloca ptr, align 8
  %7 = alloca i32, align 4
  %8 = alloca ptr, align 8
  %9 = alloca ptr, align 8
  %10 = alloca ptr, align 8
  %11 = alloca i8, align 1
  store ptr %0, ptr %6, align 8
  store i32 %1, ptr %7, align 4
  store ptr %2, ptr %8, align 8
  store ptr %3, ptr %9, align 8
  store ptr %4, ptr %10, align 8
  call void @llvm.lifetime.start.p0(i64 1, ptr %11) #11
  %12 = load ptr, ptr %6, align 8
  %13 = load i32, ptr %7, align 4
  %14 = call zeroext i8 @tvb_get_uint8(ptr noundef %12, i32 noundef %13)
  store i8 %14, ptr %11, align 1
  %15 = load ptr, ptr %9, align 8
  %16 = load i32, ptr @hf_bthci_evt_num_keys, align 4
  %17 = load ptr, ptr %6, align 8
  %18 = load i32, ptr %7, align 4
  %19 = call ptr @proto_tree_add_item(ptr noundef %15, i32 noundef %16, ptr noundef %17, i32 noundef %18, i32 noundef 1, i32 noundef -2147483648)
  %20 = load i32, ptr %7, align 4
  %21 = add i32 %20, 1
  store i32 %21, ptr %7, align 4
  br label %22

22:                                               ; preds = %26, %5
  %23 = load i8, ptr %11, align 1
  %24 = add i8 %23, -1
  store i8 %24, ptr %11, align 1
  %25 = icmp ne i8 %23, 0
  br i1 %25, label %26, label %46

26:                                               ; preds = %22
  %27 = load i32, ptr @hf_bthci_evt_bd_addr, align 4
  %28 = load ptr, ptr %8, align 8
  %29 = load ptr, ptr %9, align 8
  %30 = load ptr, ptr %6, align 8
  %31 = load i32, ptr %7, align 4
  %32 = load ptr, ptr %10, align 8
  %33 = getelementptr inbounds nuw %struct._bluetooth_data_t, ptr %32, i32 0, i32 0
  %34 = load i32, ptr %33, align 8
  %35 = load ptr, ptr %10, align 8
  %36 = getelementptr inbounds nuw %struct._bluetooth_data_t, ptr %35, i32 0, i32 1
  %37 = load i32, ptr %36, align 4
  %38 = call i32 @dissect_bd_addr(i32 noundef %27, ptr noundef %28, ptr noundef %29, ptr noundef %30, i32 noundef %31, i1 noundef zeroext false, i32 noundef %34, i32 noundef %37, ptr noundef null)
  store i32 %38, ptr %7, align 4
  %39 = load ptr, ptr %9, align 8
  %40 = load i32, ptr @hf_bthci_evt_link_key, align 4
  %41 = load ptr, ptr %6, align 8
  %42 = load i32, ptr %7, align 4
  %43 = call ptr @proto_tree_add_item(ptr noundef %39, i32 noundef %40, ptr noundef %41, i32 noundef %42, i32 noundef 16, i32 noundef 0)
  %44 = load i32, ptr %7, align 4
  %45 = add i32 %44, 16
  store i32 %45, ptr %7, align 4
  br label %22, !llvm.loop !20

46:                                               ; preds = %22
  %47 = load i32, ptr %7, align 4
  call void @llvm.lifetime.end.p0(i64 1, ptr %11) #11
  ret i32 %47
}