; Function Attrs: null_pointer_is_valid sspstrong uwtable
define internal fastcc noundef i32 @dissect_bthci_evt_return_link_keys(ptr noundef %0, ptr noundef %1, ptr noundef %2, ptr noundef nonnull readonly captures(none) %3) unnamed_addr #1 {
  %5 = tail call zeroext i8 @tvb_get_uint8(ptr noundef %0, i32 noundef 2)
  %6 = load i32, ptr @hf_bthci_evt_num_keys, align 4
  %7 = tail call ptr @proto_tree_add_item(ptr noundef %2, i32 noundef %6, ptr noundef %0, i32 noundef 2, i32 noundef 1, i32 noundef -2147483648)
  %.not18 = icmp eq i8 %5, 0
  br i1 %.not18, label %._crit_edge, label %.lr.ph

.lr.ph:                                           ; preds = %4
  %8 = getelementptr inbounds nuw i8, ptr %3, i64 4
  br label %9

9:                                                ; preds = %.lr.ph, %9
  %.020 = phi i8 [ %5, %.lr.ph ], [ %10, %9 ]
  %.01719 = phi i32 [ 3, %.lr.ph ], [ %17, %9 ]
  %10 = add i8 %.020, -1
  %11 = load i32, ptr @hf_bthci_evt_bd_addr, align 4
  %12 = load i32, ptr %3, align 8
  %13 = load i32, ptr %8, align 4
  %14 = tail call i32 @dissect_bd_addr(i32 noundef %11, ptr noundef %1, ptr noundef %2, ptr noundef %0, i32 noundef %.01719, i1 noundef zeroext false, i32 noundef %12, i32 noundef %13, ptr noundef null)
  %15 = load i32, ptr @hf_bthci_evt_link_key, align 4
  %16 = tail call ptr @proto_tree_add_item(ptr noundef %2, i32 noundef %15, ptr noundef %0, i32 noundef %14, i32 noundef 16, i32 noundef 0)
  %17 = add i32 %14, 16
  %.not = icmp eq i8 %10, 0
  br i1 %.not, label %._crit_edge, label %9, !llvm.loop !20

._crit_edge:                                      ; preds = %9, %4
  %.017.lcssa = phi i32 [ 3, %4 ], [ %17, %9 ]
  ret i32 %.017.lcssa
}